; Function Attrs: mustprogress uwtable
define noundef nonnull ptr @grpc_resource_quota_create(ptr noundef %name) local_unnamed_addr #3 personality ptr @__gxx_personality_v0 {
entry:
  %quota_name = alloca %"class.std::__cxx11::basic_string", align 8
  %ref.tmp = alloca %"class.absl::lts_20230802::AlphaNum", align 8
  %ref.tmp1 = alloca %"class.absl::lts_20230802::AlphaNum", align 8
  %ref.tmp2 = alloca %"class.std::allocator.25", align 1
  %agg.tmp = alloca %"class.std::__cxx11::basic_string", align 8
  %cmp.not = icmp eq ptr %name, null
  br i1 %cmp.not, label %cond.end.thread, label %cond.false

cond.end.thread:                                  ; preds = %entry
  store i64 16, ptr %ref.tmp, align 8
  %0 = getelementptr inbounds i8, ptr %ref.tmp, i64 8
  store ptr @.str.1, ptr %0, align 8
  %1 = atomicrmw add ptr @_ZZ26grpc_resource_quota_createE17anonymous_counter, i64 1 seq_cst, align 8
  %digits_.i = getelementptr inbounds i8, ptr %ref.tmp1, i64 16
  %call.i = call noundef ptr @_ZN4absl12lts_2023080216numbers_internal15FastIntToBufferEmPc(i64 noundef %1, ptr noundef nonnull %digits_.i)
  %sub.ptr.lhs.cast.i = ptrtoint ptr %call.i to i64
  %sub.ptr.rhs.cast.i = ptrtoint ptr %digits_.i to i64
  %sub.ptr.sub.i = sub i64 %sub.ptr.lhs.cast.i, %sub.ptr.rhs.cast.i
  store i64 %sub.ptr.sub.i, ptr %ref.tmp1, align 8
  %_M_str.i.i = getelementptr inbounds i8, ptr %ref.tmp1, i64 8
  store ptr %digits_.i, ptr %_M_str.i.i, align 8
  call void @_ZN4absl12lts_202308026StrCatB5cxx11ERKNS0_8AlphaNumES3_(ptr nonnull sret(%"class.std::__cxx11::basic_string") align 8 %quota_name, ptr noundef nonnull align 8 dereferenceable(48) %ref.tmp, ptr noundef nonnull align 8 dereferenceable(48) %ref.tmp1)
  br label %cleanup.done

cond.false:                                       ; preds = %entry
  call void @_ZNSaIcEC1Ev(ptr noundef nonnull align 1 dereferenceable(1) %ref.tmp2) #21
  %call.i89 = invoke noundef ptr @_ZNSt7__cxx1112basic_stringIcSt11char_traitsIcESaIcEE13_M_local_dataEv(ptr noundef nonnull align 8 dereferenceable(32) %quota_name)
          to label %call.i8.noexc unwind label %lpad

call.i8.noexc:                                    ; preds = %cond.false
  invoke void @_ZNSt7__cxx1112basic_stringIcSt11char_traitsIcESaIcEE12_Alloc_hiderC1EPcRKS3_(ptr noundef nonnull align 8 dereferenceable(8) %quota_name, ptr noundef %call.i89, ptr noundef nonnull align 1 dereferenceable(1) %ref.tmp2)
          to label %if.end.i unwind label %lpad

lpad.i:                                           ; preds = %if.end.i
  %2 = landingpad { ptr, i32 }
          cleanup
  call void @_ZNSaIcED2Ev(ptr noundef nonnull align 1 dereferenceable(1) %quota_name) #21
  br label %lpad.body

if.end.i:                                         ; preds = %call.i8.noexc
  %call.i.i = call noundef i64 @strlen(ptr noundef nonnull dereferenceable(1) %name) #21
  %add.ptr.i = getelementptr inbounds i8, ptr %name, i64 %call.i.i
  invoke void @_ZNSt7__cxx1112basic_stringIcSt11char_traitsIcESaIcEE12_M_constructIPKcEEvT_S8_St20forward_iterator_tag(ptr noundef nonnull align 8 dereferenceable(32) %quota_name, ptr noundef nonnull %name, ptr noundef nonnull %add.ptr.i)
          to label %cleanup.action unwind label %lpad.i

cleanup.action:                                   ; preds = %if.end.i
  call void @_ZNSaIcED1Ev(ptr noundef nonnull align 1 dereferenceable(1) %ref.tmp2) #21
  br label %cleanup.done

cleanup.done:                                     ; preds = %cond.end.thread, %cleanup.action
  %call8 = invoke noalias noundef nonnull dereferenceable(40) ptr @_Znwm(i64 noundef 40) #22
          to label %invoke.cont7 unwind label %lpad6

invoke.cont7:                                     ; preds = %cleanup.done
  call void @_ZNSt7__cxx1112basic_stringIcSt11char_traitsIcESaIcEEC1EOS4_(ptr noundef nonnull align 8 dereferenceable(32) %agg.tmp, ptr noundef nonnull align 8 dereferenceable(32) %quota_name) #21
  invoke void @_ZN9grpc_core13ResourceQuotaC1ENSt7__cxx1112basic_stringIcSt11char_traitsIcESaIcEEE(ptr noundef nonnull align 8 dereferenceable(40) %call8, ptr noundef nonnull %agg.tmp)
          to label %invoke.cont10 unwind label %lpad9

invoke.cont10:                                    ; preds = %invoke.cont7
  call void @_ZNSt7__cxx1112basic_stringIcSt11char_traitsIcESaIcEED1Ev(ptr noundef nonnull align 8 dereferenceable(32) %agg.tmp) #21
  call void @_ZNSt7__cxx1112basic_stringIcSt11char_traitsIcESaIcEED1Ev(ptr noundef nonnull align 8 dereferenceable(32) %quota_name) #21
  ret ptr %call8

lpad:                                             ; preds = %call.i8.noexc, %cond.false
  %3 = landingpad { ptr, i32 }
          cleanup
  br label %lpad.body

lpad.body:                                        ; preds = %lpad.i, %lpad
  %eh.lpad-body = phi { ptr, i32 } [ %3, %lpad ], [ %2, %lpad.i ]
  call void @_ZNSaIcED1Ev(ptr noundef nonnull align 1 dereferenceable(1) %ref.tmp2) #21
  br label %eh.resume

lpad6:                                            ; preds = %cleanup.done
  %4 = landingpad { ptr, i32 }
          cleanup
  br label %ehcleanup

lpad9:                                            ; preds = %invoke.cont7
  %5 = landingpad { ptr, i32 }
          cleanup
  call void @_ZNSt7__cxx1112basic_stringIcSt11char_traitsIcESaIcEED1Ev(ptr noundef nonnull align 8 dereferenceable(32) %agg.tmp) #21
  call void @_ZdlPv(ptr noundef nonnull %call8) #23
  br label %ehcleanup

ehcleanup:                                        ; preds = %lpad9, %lpad6
  %.pn = phi { ptr, i32 } [ %5, %lpad9 ], [ %4, %lpad6 ]
  call void @_ZNSt7__cxx1112basic_stringIcSt11char_traitsIcESaIcEED1Ev(ptr noundef nonnull align 8 dereferenceable(32) %quota_name) #21
  br label %eh.resume

eh.resume:                                        ; preds = %lpad.body, %ehcleanup
  %.pn.pn = phi { ptr, i32 } [ %.pn, %ehcleanup ], [ %eh.lpad-body, %lpad.body ]
  resume { ptr, i32 } %.pn.pn
}